target datalayout = "e-m:e-p270:32:32-p271:32:32-p272:64:64-i64:64-i128:128-f80:128-n8:16:32:64-S128"
target triple = "x86_64-pc-linux-gnu"

%struct.png_struct_def = type { [1 x %struct.__jmp_buf_tag], ptr, ptr, i64, ptr, ptr, ptr, ptr, ptr, ptr, ptr, ptr, i8, i8, i32, i32, i32, i32, %struct.z_stream_s, i32, i32, i32, i32, i64, i32, i32, i32, ptr, ptr, i64, i32, i32, ptr, i16, i32, i16, i8, i8, i8, i8, i8, i8, i8, i8, i8, i8, i8, i8, i8, i8, i16, i8, i32, %struct.png_color_16_struct, %struct.png_color_16_struct, i32, i32, ptr, ptr, ptr, ptr, ptr, ptr, %struct.png_color_8_struct, %struct.png_color_8_struct, ptr, %struct.png_color_16_struct, ptr, ptr, ptr, ptr, ptr, ptr, ptr, ptr, ptr, i32, i32, i64, i64, i64, i64, i32, i32, ptr, ptr, [29 x i8], i32, ptr, ptr, i32, i32, ptr, i8, i8, i16, i16, ptr, i32, i8, ptr, ptr, ptr, ptr, ptr, ptr, ptr, i8, i32, i32, i32, i64, %struct.png_unknown_chunk_t, i64, ptr, i64, i32, i32, ptr, [4 x ptr], %struct.png_colorspace }
%struct.__jmp_buf_tag = type { [8 x i64], i32, %struct.__sigset_t }
%struct.__sigset_t = type { [16 x i64] }
%struct.z_stream_s = type { ptr, i32, i64, ptr, i32, i64, ptr, ptr, ptr, ptr, ptr, i32, i64, i64 }
%struct.png_color_8_struct = type { i8, i8, i8, i8, i8 }
%struct.png_color_16_struct = type { i8, i16, i16, i16, i16 }
%struct.png_unknown_chunk_t = type { [5 x i8], ptr, i64, i8 }
%struct.png_colorspace = type { i32, %struct.png_xy, %struct.png_XYZ, i16, i16 }
%struct.png_xy = type { i32, i32, i32, i32, i32, i32, i32, i32 }
%struct.png_XYZ = type { i32, i32, i32, i32, i32, i32, i32, i32, i32 }
%struct.png_info_def = type { i32, i32, i32, i64, ptr, i16, i16, i8, i8, i8, i8, i8, i8, i8, i8, [8 x i8], %struct.png_colorspace, ptr, ptr, i32, i32, i32, ptr, %struct.png_time_struct, %struct.png_color_8_struct, ptr, %struct.png_color_16_struct, %struct.png_color_16_struct, i32, i32, i8, i32, i32, i8, ptr, ptr, i32, i32, ptr, ptr, i8, i8, i32, ptr, i32, ptr, i32, i8, ptr, ptr, ptr }
%struct.png_time_struct = type { i16, i8, i8, i8, i8, i8 }

@.str.5 = private unnamed_addr constant [13 x i8] c"out of place\00", align 1
@.str.6 = private unnamed_addr constant [8 x i8] c"invalid\00", align 1
@.str.7 = private unnamed_addr constant [13 x i8] c"missing IHDR\00", align 1
@.str.8 = private unnamed_addr constant [10 x i8] c"duplicate\00", align 1

; Function Attrs: nounwind uwtable
define hidden void @png_crc_read(ptr noalias noundef %0, ptr noundef %1, i32 noundef %2) #0 {
  %4 = alloca ptr, align 8
  %5 = alloca ptr, align 8
  %6 = alloca i32, align 4
  store ptr %0, ptr %4, align 8
  store ptr %1, ptr %5, align 8
  store i32 %2, ptr %6, align 4
  %7 = load ptr, ptr %4, align 8
  %8 = icmp eq ptr %7, null
  br i1 %8, label %9, label %10

9:                                                ; preds = %3
  br label %19

10:                                               ; preds = %3
  %11 = load ptr, ptr %4, align 8
  %12 = load ptr, ptr %5, align 8
  %13 = load i32, ptr %6, align 4
  %14 = zext i32 %13 to i64
  call void @png_read_data(ptr noundef %11, ptr noundef %12, i64 noundef %14)
  %15 = load ptr, ptr %4, align 8
  %16 = load ptr, ptr %5, align 8
  %17 = load i32, ptr %6, align 4
  %18 = zext i32 %17 to i64
  call void @png_calculate_crc(ptr noundef %15, ptr noundef %16, i64 noundef %18)
  br label %19

19:                                               ; preds = %10, %9
  ret void
}

; Function Attrs: nounwind uwtable
define hidden void @png_handle_pHYs(ptr noalias noundef %0, ptr noalias noundef %1, i32 noundef %2) #0 {
  %4 = alloca ptr, align 8
  %5 = alloca ptr, align 8
  %6 = alloca i32, align 4
  %7 = alloca [9 x i8], align 1
  %8 = alloca i32, align 4
  %9 = alloca i32, align 4
  %10 = alloca i32, align 4
  store ptr %0, ptr %4, align 8
  store ptr %1, ptr %5, align 8
  store i32 %2, ptr %6, align 4
  %11 = load ptr, ptr %4, align 8
  %12 = getelementptr inbounds %struct.png_struct_def, ptr %11, i32 0, i32 14
  %13 = load i32, ptr %12, align 4
  %14 = and i32 %13, 1
  %15 = icmp eq i32 %14, 0
  br i1 %15, label %16, label %18

16:                                               ; preds = %3
  %17 = load ptr, ptr %4, align 8
  call void @png_chunk_error(ptr noundef %17, ptr noundef @.str.7) #6
  unreachable

18:                                               ; preds = %3
  %19 = load ptr, ptr %4, align 8
  %20 = getelementptr inbounds %struct.png_struct_def, ptr %19, i32 0, i32 14
  %21 = load i32, ptr %20, align 4
  %22 = and i32 %21, 4
  %23 = icmp ne i32 %22, 0
  br i1 %23, label %24, label %29

24:                                               ; preds = %18
  %25 = load ptr, ptr %4, align 8
  %26 = load i32, ptr %6, align 4
  %27 = call i32 @png_crc_finish(ptr noundef %25, i32 noundef %26)
  %28 = load ptr, ptr %4, align 8
  call void @png_chunk_benign_error(ptr noundef %28, ptr noundef @.str.5)
  br label %115

29:                                               ; preds = %18
  %30 = load ptr, ptr %5, align 8
  %31 = icmp ne ptr %30, null
  br i1 %31, label %32, label %43

32:                                               ; preds = %29
  %33 = load ptr, ptr %5, align 8
  %34 = getelementptr inbounds %struct.png_info_def, ptr %33, i32 0, i32 2
  %35 = load i32, ptr %34, align 8
  %36 = and i32 %35, 128
  %37 = icmp ne i32 %36, 0
  br i1 %37, label %38, label %43

38:                                               ; preds = %32
  %39 = load ptr, ptr %4, align 8
  %40 = load i32, ptr %6, align 4
  %41 = call i32 @png_crc_finish(ptr noundef %39, i32 noundef %40)
  %42 = load ptr, ptr %4, align 8
  call void @png_chunk_benign_error(ptr noundef %42, ptr noundef @.str.8)
  br label %115

43:                                               ; preds = %32, %29
  br label %44

44:                                               ; preds = %43
  br label %45

45:                                               ; preds = %44
  %46 = load i32, ptr %6, align 4
  %47 = icmp ne i32 %46, 9
  br i1 %47, label %48, label %53

48:                                               ; preds = %45
  %49 = load ptr, ptr %4, align 8
  %50 = load i32, ptr %6, align 4
  %51 = call i32 @png_crc_finish(ptr noundef %49, i32 noundef %50)
  %52 = load ptr, ptr %4, align 8
  call void @png_chunk_benign_error(ptr noundef %52, ptr noundef @.str.6)
  br label %115

53:                                               ; preds = %45
  %54 = load ptr, ptr %4, align 8
  %55 = getelementptr inbounds [9 x i8], ptr %7, i64 0, i64 0
  call void @png_crc_read(ptr noundef %54, ptr noundef %55, i32 noundef 9)
  %56 = load ptr, ptr %4, align 8
  %57 = call i32 @png_crc_finish(ptr noundef %56, i32 noundef 0)
  %58 = icmp ne i32 %57, 0
  br i1 %58, label %59, label %60

59:                                               ; preds = %53
  br label %115

60:                                               ; preds = %53
  %61 = getelementptr inbounds [9 x i8], ptr %7, i64 0, i64 0
  %62 = load i8, ptr %61, align 1
  %63 = zext i8 %62 to i32
  %64 = shl i32 %63, 24
  %65 = getelementptr inbounds [9 x i8], ptr %7, i64 0, i64 0
  %66 = getelementptr inbounds i8, ptr %65, i64 1
  %67 = load i8, ptr %66, align 1
  %68 = zext i8 %67 to i32
  %69 = shl i32 %68, 16
  %70 = add i32 %64, %69
  %71 = getelementptr inbounds [9 x i8], ptr %7, i64 0, i64 0
  %72 = getelementptr inbounds i8, ptr %71, i64 2
  %73 = load i8, ptr %72, align 1
  %74 = zext i8 %73 to i32
  %75 = shl i32 %74, 8
  %76 = add i32 %70, %75
  %77 = getelementptr inbounds [9 x i8], ptr %7, i64 0, i64 0
  %78 = getelementptr inbounds i8, ptr %77, i64 3
  %79 = load i8, ptr %78, align 1
  %80 = zext i8 %79 to i32
  %81 = add i32 %76, %80
  store i32 %81, ptr %8, align 4
  %82 = getelementptr inbounds [9 x i8], ptr %7, i64 0, i64 0
  %83 = getelementptr inbounds i8, ptr %82, i64 4
  %84 = load i8, ptr %83, align 1
  %85 = zext i8 %84 to i32
  %86 = shl i32 %85, 24
  %87 = getelementptr inbounds [9 x i8], ptr %7, i64 0, i64 0
  %88 = getelementptr inbounds i8, ptr %87, i64 4
  %89 = getelementptr inbounds i8, ptr %88, i64 1
  %90 = load i8, ptr %89, align 1
  %91 = zext i8 %90 to i32
  %92 = shl i32 %91, 16
  %93 = add i32 %86, %92
  %94 = getelementptr inbounds [9 x i8], ptr %7, i64 0, i64 0
  %95 = getelementptr inbounds i8, ptr %94, i64 4
  %96 = getelementptr inbounds i8, ptr %95, i64 2
  %97 = load i8, ptr %96, align 1
  %98 = zext i8 %97 to i32
  %99 = shl i32 %98, 8
  %100 = add i32 %93, %99
  %101 = getelementptr inbounds [9 x i8], ptr %7, i64 0, i64 0
  %102 = getelementptr inbounds i8, ptr %101, i64 4
  %103 = getelementptr inbounds i8, ptr %102, i64 3
  %104 = load i8, ptr %103, align 1
  %105 = zext i8 %104 to i32
  %106 = add i32 %100, %105
  store i32 %106, ptr %9, align 4
  %107 = getelementptr inbounds [9 x i8], ptr %7, i64 0, i64 8
  %108 = load i8, ptr %107, align 1
  %109 = zext i8 %108 to i32
  store i32 %109, ptr %10, align 4
  %110 = load ptr, ptr %4, align 8
  %111 = load ptr, ptr %5, align 8
  %112 = load i32, ptr %8, align 4
  %113 = load i32, ptr %9, align 4
  %114 = load i32, ptr %10, align 4
  call void @png_set_pHYs(ptr noundef %110, ptr noundef %111, i32 noundef %112, i32 noundef %113, i32 noundef %114)
  br label %115

115:                                              ; preds = %60, %59, %48, %38, %24
  ret void
}