; Function Attrs: nounwind uwtable
define hidden void @png_handle_pHYs(ptr noalias noundef %0, ptr noalias noundef %1, i32 noundef %2) local_unnamed_addr #0 {
  %4 = alloca [9 x i8], align 1
  %5 = getelementptr inbounds i8, ptr %0, i64 292
  %6 = load i32, ptr %5, align 4
  %7 = and i32 %6, 1
  %8 = icmp eq i32 %7, 0
  br i1 %8, label %9, label %10

9:                                                ; preds = %3
  tail call void @png_chunk_error(ptr noundef nonnull %0, ptr noundef nonnull @.str.7) #11
  unreachable

10:                                               ; preds = %3
  %11 = and i32 %6, 4
  %.not = icmp eq i32 %11, 0
  br i1 %.not, label %14, label %12

12:                                               ; preds = %10
  %13 = tail call i32 @png_crc_finish(ptr noundef nonnull %0, i32 noundef %2)
  tail call void @png_chunk_benign_error(ptr noundef nonnull %0, ptr noundef nonnull @.str.5) #12
  br label %64

14:                                               ; preds = %10
  %.not22 = icmp eq ptr %1, null
  br i1 %.not22, label %21, label %15

15:                                               ; preds = %14
  %16 = getelementptr inbounds i8, ptr %1, i64 8
  %17 = load i32, ptr %16, align 8
  %18 = and i32 %17, 128
  %.not23 = icmp eq i32 %18, 0
  br i1 %.not23, label %21, label %19

19:                                               ; preds = %15
  %20 = tail call i32 @png_crc_finish(ptr noundef nonnull %0, i32 noundef %2)
  tail call void @png_chunk_benign_error(ptr noundef nonnull %0, ptr noundef nonnull @.str.8) #12
  br label %64

21:                                               ; preds = %15, %14
  %.not24 = icmp eq i32 %2, 9
  br i1 %.not24, label %png_crc_read.exit, label %22

22:                                               ; preds = %21
  %23 = tail call i32 @png_crc_finish(ptr noundef nonnull %0, i32 noundef %2)
  tail call void @png_chunk_benign_error(ptr noundef nonnull %0, ptr noundef nonnull @.str.6) #12
  br label %64

png_crc_read.exit:                                ; preds = %21
  call void @png_read_data(ptr noundef nonnull %0, ptr noundef nonnull %4, i64 noundef 9) #12
  call void @png_calculate_crc(ptr noundef nonnull %0, ptr noundef nonnull %4, i64 noundef 9) #12
  %24 = call i32 @png_crc_finish(ptr noundef nonnull %0, i32 noundef 0)
  %.not25 = icmp eq i32 %24, 0
  br i1 %.not25, label %25, label %64

25:                                               ; preds = %png_crc_read.exit
  %26 = load i8, ptr %4, align 1
  %27 = zext i8 %26 to i32
  %28 = shl nuw i32 %27, 24
  %29 = getelementptr inbounds i8, ptr %4, i64 1
  %30 = load i8, ptr %29, align 1
  %31 = zext i8 %30 to i32
  %32 = shl nuw nsw i32 %31, 16
  %33 = or disjoint i32 %32, %28
  %34 = getelementptr inbounds i8, ptr %4, i64 2
  %35 = load i8, ptr %34, align 1
  %36 = zext i8 %35 to i32
  %37 = shl nuw nsw i32 %36, 8
  %38 = or disjoint i32 %33, %37
  %39 = getelementptr inbounds i8, ptr %4, i64 3
  %40 = load i8, ptr %39, align 1
  %41 = zext i8 %40 to i32
  %42 = or disjoint i32 %38, %41
  %43 = getelementptr inbounds i8, ptr %4, i64 4
  %44 = load i8, ptr %43, align 1
  %45 = zext i8 %44 to i32
  %46 = shl nuw i32 %45, 24
  %47 = getelementptr inbounds i8, ptr %4, i64 5
  %48 = load i8, ptr %47, align 1
  %49 = zext i8 %48 to i32
  %50 = shl nuw nsw i32 %49, 16
  %51 = or disjoint i32 %50, %46
  %52 = getelementptr inbounds i8, ptr %4, i64 6
  %53 = load i8, ptr %52, align 1
  %54 = zext i8 %53 to i32
  %55 = shl nuw nsw i32 %54, 8
  %56 = or disjoint i32 %51, %55
  %57 = getelementptr inbounds i8, ptr %4, i64 7
  %58 = load i8, ptr %57, align 1
  %59 = zext i8 %58 to i32
  %60 = or disjoint i32 %56, %59
  %61 = getelementptr inbounds i8, ptr %4, i64 8
  %62 = load i8, ptr %61, align 1
  %63 = zext i8 %62 to i32
  call void @png_set_pHYs(ptr noundef nonnull %0, ptr noundef %1, i32 noundef %42, i32 noundef %60, i32 noundef %63) #12
  br label %64

64:                                               ; preds = %png_crc_read.exit, %25, %22, %19, %12
  ret void
}